; Function Attrs: nounwind uwtable
define ptr @Aig_ManDupPart_rec(ptr noundef %0, ptr noundef %1, ptr noundef captures(none) %2, ptr noundef %3) local_unnamed_addr #4 {
  %5 = getelementptr i8, ptr %1, i64 312
  %.val26 = load i32, ptr %5, align 8, !tbaa !100
  %6 = getelementptr i8, ptr %2, i64 32
  %.val27 = load i32, ptr %6, align 8, !tbaa !101
  %.not = icmp eq i32 %.val27, %.val26
  br i1 %.not, label %7, label %10

7:                                                ; preds = %4
  %8 = getelementptr inbounds nuw i8, ptr %2, i64 40
  %9 = load ptr, ptr %8, align 8, !tbaa !51
  br label %85

10:                                               ; preds = %4
  store i32 %.val26, ptr %6, align 8, !tbaa !101
  %11 = getelementptr i8, ptr %2, i64 24
  %.val25 = load i64, ptr %11, align 8
  %12 = and i64 %.val25, 7
  %.not32 = icmp eq i64 %12, 2
  br i1 %.not32, label %13, label %50

13:                                               ; preds = %10
  %14 = load ptr, ptr %2, align 8, !tbaa !51
  %15 = ptrtoint ptr %14 to i64
  %16 = trunc i64 %15 to i32
  %17 = getelementptr inbounds nuw i8, ptr %3, i64 4
  %18 = load i32, ptr %17, align 4, !tbaa !33
  %19 = load i32, ptr %3, align 8, !tbaa !36
  %20 = icmp eq i32 %18, %19
  br i1 %20, label %21, label %.Vec_IntGrow.exit10_crit_edge.i

.Vec_IntGrow.exit10_crit_edge.i:                  ; preds = %13
  %.phi.trans.insert.i = getelementptr inbounds nuw i8, ptr %3, i64 8
  %.pre.i = load ptr, ptr %.phi.trans.insert.i, align 8, !tbaa !37
  br label %Vec_IntPush.exit

21:                                               ; preds = %13
  %22 = icmp slt i32 %18, 16
  br i1 %22, label %23, label %31

23:                                               ; preds = %21
  %24 = getelementptr inbounds nuw i8, ptr %3, i64 8
  %25 = load ptr, ptr %24, align 8, !tbaa !37
  %.not9.i.i = icmp eq ptr %25, null
  br i1 %.not9.i.i, label %28, label %26

26:                                               ; preds = %23
  %27 = tail call dereferenceable_or_null(64) ptr @realloc(ptr noundef nonnull %25, i64 noundef 64) #25
  br label %Vec_IntGrow.exit.i

28:                                               ; preds = %23
  %29 = tail call noalias dereferenceable_or_null(64) ptr @malloc(i64 noundef 64) #23
  br label %Vec_IntGrow.exit.i

Vec_IntGrow.exit.i:                               ; preds = %28, %26
  %30 = phi ptr [ %27, %26 ], [ %29, %28 ]
  store ptr %30, ptr %24, align 8, !tbaa !37
  store i32 16, ptr %3, align 8, !tbaa !36
  br label %Vec_IntPush.exit

31:                                               ; preds = %21
  %32 = shl nuw nsw i32 %18, 1
  %33 = getelementptr inbounds nuw i8, ptr %3, i64 8
  %34 = load ptr, ptr %33, align 8, !tbaa !37
  %.not9.i9.i = icmp eq ptr %34, null
  %35 = zext nneg i32 %32 to i64
  %36 = shl nuw nsw i64 %35, 2
  br i1 %.not9.i9.i, label %39, label %37

37:                                               ; preds = %31
  %38 = tail call ptr @realloc(ptr noundef nonnull %34, i64 noundef %36) #25
  br label %41

39:                                               ; preds = %31
  %40 = tail call noalias ptr @malloc(i64 noundef %36) #23
  br label %41

41:                                               ; preds = %39, %37
  %42 = phi ptr [ %38, %37 ], [ %40, %39 ]
  store ptr %42, ptr %33, align 8, !tbaa !37
  store i32 %32, ptr %3, align 8, !tbaa !36
  br label %Vec_IntPush.exit

Vec_IntPush.exit:                                 ; preds = %.Vec_IntGrow.exit10_crit_edge.i, %Vec_IntGrow.exit.i, %41
  %43 = phi ptr [ %.pre.i, %.Vec_IntGrow.exit10_crit_edge.i ], [ %42, %41 ], [ %30, %Vec_IntGrow.exit.i ]
  %44 = load i32, ptr %17, align 4, !tbaa !33
  %45 = add nsw i32 %44, 1
  store i32 %45, ptr %17, align 4, !tbaa !33
  %46 = sext i32 %44 to i64
  %47 = getelementptr inbounds i32, ptr %43, i64 %46
  store i32 %16, ptr %47, align 4, !tbaa !29
  %48 = tail call ptr @Aig_ObjCreateCi(ptr noundef %0) #24
  %49 = getelementptr inbounds nuw i8, ptr %2, i64 40
  store ptr %48, ptr %49, align 8, !tbaa !51
  br label %85

50:                                               ; preds = %10
  %51 = getelementptr i8, ptr %2, i64 8
  %.val = load ptr, ptr %51, align 8, !tbaa !55
  %52 = ptrtoint ptr %.val to i64
  %53 = and i64 %52, -2
  %54 = inttoptr i64 %53 to ptr
  %55 = tail call ptr @Aig_ManDupPart_rec(ptr noundef %0, ptr noundef nonnull %1, ptr noundef %54, ptr noundef %3)
  %56 = getelementptr i8, ptr %2, i64 16
  %.val24 = load ptr, ptr %56, align 8, !tbaa !56
  %57 = ptrtoint ptr %.val24 to i64
  %58 = and i64 %57, -2
  %59 = inttoptr i64 %58 to ptr
  %60 = tail call ptr @Aig_ManDupPart_rec(ptr noundef %0, ptr noundef nonnull %1, ptr noundef %59, ptr noundef %3)
  %.val29 = load ptr, ptr %51, align 8, !tbaa !55
  %61 = ptrtoint ptr %.val29 to i64
  %62 = and i64 %61, -2
  %.not.i = icmp eq i64 %62, 0
  br i1 %.not.i, label %Aig_ObjChild0Copy.exit, label %63

63:                                               ; preds = %50
  %64 = inttoptr i64 %62 to ptr
  %65 = getelementptr inbounds nuw i8, ptr %64, i64 40
  %66 = load ptr, ptr %65, align 8, !tbaa !51
  %67 = and i64 %61, 1
  %68 = ptrtoint ptr %66 to i64
  %69 = xor i64 %67, %68
  %70 = inttoptr i64 %69 to ptr
  br label %Aig_ObjChild0Copy.exit

Aig_ObjChild0Copy.exit:                           ; preds = %50, %63
  %71 = phi ptr [ %70, %63 ], [ null, %50 ]
  %.val30 = load ptr, ptr %56, align 8, !tbaa !56
  %72 = ptrtoint ptr %.val30 to i64
  %73 = and i64 %72, -2
  %.not.i31 = icmp eq i64 %73, 0
  br i1 %.not.i31, label %Aig_ObjChild1Copy.exit, label %74

74:                                               ; preds = %Aig_ObjChild0Copy.exit
  %75 = inttoptr i64 %73 to ptr
  %76 = getelementptr inbounds nuw i8, ptr %75, i64 40
  %77 = load ptr, ptr %76, align 8, !tbaa !51
  %78 = and i64 %72, 1
  %79 = ptrtoint ptr %77 to i64
  %80 = xor i64 %78, %79
  %81 = inttoptr i64 %80 to ptr
  br label %Aig_ObjChild1Copy.exit

Aig_ObjChild1Copy.exit:                           ; preds = %Aig_ObjChild0Copy.exit, %74
  %82 = phi ptr [ %81, %74 ], [ null, %Aig_ObjChild0Copy.exit ]
  %83 = tail call ptr @Aig_And(ptr noundef %0, ptr noundef %71, ptr noundef %82) #24
  %84 = getelementptr inbounds nuw i8, ptr %2, i64 40
  store ptr %83, ptr %84, align 8, !tbaa !51
  br label %85

85:                                               ; preds = %Aig_ObjChild1Copy.exit, %Vec_IntPush.exit, %7
  %.0 = phi ptr [ %9, %7 ], [ %48, %Vec_IntPush.exit ], [ %83, %Aig_ObjChild1Copy.exit ]
  ret ptr %.0
}